; Function Attrs: nofree norecurse nosync nounwind memory(argmem: readwrite) uwtable
define noundef ptr @gvrender_ptf_A(ptr noundef readonly captures(none) %0, ptr noundef readonly captures(none) %1, ptr noundef returned writeonly captures(ret: address, provenance) %2, i64 noundef %3) local_unnamed_addr #6 {
  %5 = getelementptr inbounds nuw i8, ptr %0, i64 632
  %.sroa.014.0.copyload = load double, ptr %5, align 8, !tbaa !70
  %.sroa.516.0..sroa_idx = getelementptr inbounds nuw i8, ptr %0, i64 640
  %.sroa.516.0.copyload = load double, ptr %.sroa.516.0..sroa_idx, align 8, !tbaa !70
  %6 = getelementptr inbounds nuw i8, ptr %0, i64 480
  %7 = load double, ptr %6, align 8, !tbaa !71
  %8 = getelementptr inbounds nuw i8, ptr %0, i64 648
  %9 = load double, ptr %8, align 8, !tbaa !72
  %10 = fmul double %7, %9
  %11 = getelementptr inbounds nuw i8, ptr %0, i64 656
  %12 = load double, ptr %11, align 8, !tbaa !73
  %13 = fmul double %7, %12
  %14 = getelementptr inbounds nuw i8, ptr %0, i64 488
  %15 = load i32, ptr %14, align 8, !tbaa !74
  %.not = icmp eq i32 %15, 0
  %.not42 = icmp eq i64 %3, 0
  br i1 %.not, label %.preheader, label %.preheader36

.preheader36:                                     ; preds = %4
  br i1 %.not42, label %.loopexit, label %.lr.ph

.preheader:                                       ; preds = %4
  br i1 %.not42, label %.loopexit, label %.lr.ph40

.lr.ph:                                           ; preds = %.preheader36, %.lr.ph
  %.03538 = phi i64 [ %27, %.lr.ph ], [ 0, %.preheader36 ]
  %16 = getelementptr inbounds nuw %struct.pointf_s, ptr %1, i64 %.03538
  %17 = getelementptr inbounds nuw i8, ptr %16, i64 8
  %18 = load double, ptr %17, align 8, !tbaa !75
  %19 = fadd double %.sroa.516.0.copyload, %18
  %20 = fneg double %19
  %21 = fmul double %10, %20
  %22 = load double, ptr %16, align 8, !tbaa !76
  %23 = fadd double %.sroa.014.0.copyload, %22
  %24 = fmul double %13, %23
  %25 = getelementptr inbounds nuw %struct.pointf_s, ptr %2, i64 %.03538
  %26 = getelementptr inbounds nuw i8, ptr %25, i64 8
  store double %24, ptr %26, align 8, !tbaa !75
  store double %21, ptr %25, align 8, !tbaa !76
  %27 = add nuw i64 %.03538, 1
  %exitcond.not = icmp eq i64 %27, %3
  br i1 %exitcond.not, label %.loopexit, label %.lr.ph, !llvm.loop !77

.lr.ph40:                                         ; preds = %.preheader, %.lr.ph40
  %.039 = phi i64 [ %38, %.lr.ph40 ], [ 0, %.preheader ]
  %28 = getelementptr inbounds nuw %struct.pointf_s, ptr %1, i64 %.039
  %29 = load double, ptr %28, align 8, !tbaa !76
  %30 = fadd double %.sroa.014.0.copyload, %29
  %31 = fmul double %10, %30
  %32 = getelementptr inbounds nuw %struct.pointf_s, ptr %2, i64 %.039
  store double %31, ptr %32, align 8, !tbaa !76
  %33 = getelementptr inbounds nuw i8, ptr %28, i64 8
  %34 = load double, ptr %33, align 8, !tbaa !75
  %35 = fadd double %.sroa.516.0.copyload, %34
  %36 = fmul double %13, %35
  %37 = getelementptr inbounds nuw i8, ptr %32, i64 8
  store double %36, ptr %37, align 8, !tbaa !75
  %38 = add nuw i64 %.039, 1
  %exitcond44.not = icmp eq i64 %38, %3
  br i1 %exitcond44.not, label %.loopexit, label %.lr.ph40, !llvm.loop !79

.loopexit:                                        ; preds = %.lr.ph, %.lr.ph40, %.preheader36, %.preheader
  ret ptr %2
}